target datalayout = "e-m:e-p270:32:32-p271:32:32-p272:64:64-i64:64-i128:128-f80:128-n8:16:32:64-S128"
target triple = "x86_64-pc-linux-gnu"

%union.pthread_mutex_t = type { %struct.__pthread_mutex_s }
%struct.__pthread_mutex_s = type { i32, i32, i32, i32, i32, i16, i16, %struct.__pthread_internal_list }
%struct.__pthread_internal_list = type { ptr, ptr }
%struct.pmix_tma = type { ptr, ptr, ptr, ptr, ptr, ptr, ptr, ptr }
%struct.pmix_object_t = type { %union.pthread_mutex_t, ptr, i32, %struct.pmix_tma }
%struct.pmix_mca_base_var_t = type { %struct.pmix_object_t, i32, i32, i32, ptr, ptr, ptr, ptr, %struct.pmix_value_array_t, i32, i32, i32, ptr, ptr, ptr, i32, ptr, ptr }
%struct.pmix_value_array_t = type { %struct.pmix_object_t, ptr, i64, i64, i64 }
%struct.pmix_mca_base_var_file_value_t = type { %struct.pmix_list_item_t, ptr, ptr, ptr, i32 }
%struct.pmix_list_item_t = type { %struct.pmix_object_t, ptr, ptr, i32 }
%struct.pmix_list_t = type { %struct.pmix_object_t, %struct.pmix_list_item_t, i64 }

@pmix_mca_base_var_suppress_override_warning = internal global i8 0, align 1
@.str.43 = private unnamed_addr constant [22 x i8] c"help-pmix-mca-var.txt\00", align 1
@.str.75 = private unnamed_addr constant [21 x i8] c"overridden-param-set\00", align 1
@.str.76 = private unnamed_addr constant [18 x i8] c"None (going away)\00", align 1
@.str.77 = private unnamed_addr constant [20 x i8] c"deprecated-mca-file\00", align 1

; Function Attrs: nounwind uwtable
define internal i32 @var_set_from_file(ptr noundef %0, ptr noundef %1, ptr noundef %2) #0 {
  %4 = alloca i32, align 4
  %5 = alloca ptr, align 8
  %6 = alloca ptr, align 8
  %7 = alloca ptr, align 8
  %8 = alloca ptr, align 8
  %9 = alloca ptr, align 8
  %10 = alloca i8, align 1
  %11 = alloca i8, align 1
  %12 = alloca ptr, align 8
  %13 = alloca i32, align 4
  %14 = alloca ptr, align 8
  store ptr %0, ptr %5, align 8, !tbaa !3
  store ptr %1, ptr %6, align 8, !tbaa !3
  store ptr %2, ptr %7, align 8, !tbaa !72
  call void @llvm.lifetime.start.p0(i64 8, ptr %8) #15
  %15 = load ptr, ptr %5, align 8, !tbaa !3
  %16 = getelementptr inbounds nuw %struct.pmix_mca_base_var_t, ptr %15, i32 0, i32 5
  %17 = load ptr, ptr %16, align 8, !tbaa !36
  store ptr %17, ptr %8, align 8, !tbaa !47
  call void @llvm.lifetime.start.p0(i64 8, ptr %9) #15
  %18 = load ptr, ptr %5, align 8, !tbaa !3
  %19 = getelementptr inbounds nuw %struct.pmix_mca_base_var_t, ptr %18, i32 0, i32 6
  %20 = load ptr, ptr %19, align 8, !tbaa !37
  store ptr %20, ptr %9, align 8, !tbaa !47
  call void @llvm.lifetime.start.p0(i64 1, ptr %10) #15
  %21 = load ptr, ptr %5, align 8, !tbaa !3
  %22 = getelementptr inbounds %struct.pmix_mca_base_var_t, ptr %21, i64 0
  %23 = getelementptr inbounds nuw %struct.pmix_mca_base_var_t, ptr %22, i32 0, i32 9
  %24 = load i32, ptr %23, align 8, !tbaa !71
  %25 = and i32 %24, 8
  %26 = icmp ne i32 %25, 0
  %27 = xor i1 %26, true
  %28 = xor i1 %27, true
  %29 = zext i1 %28 to i8
  store i8 %29, ptr %10, align 1, !tbaa !54
  call void @llvm.lifetime.start.p0(i64 1, ptr %11) #15
  %30 = load ptr, ptr %5, align 8, !tbaa !3
  %31 = getelementptr inbounds %struct.pmix_mca_base_var_t, ptr %30, i64 0
  %32 = getelementptr inbounds nuw %struct.pmix_mca_base_var_t, ptr %31, i32 0, i32 9
  %33 = load i32, ptr %32, align 8, !tbaa !71
  %34 = and i32 %33, 131072
  %35 = icmp ne i32 %34, 0
  %36 = xor i1 %35, true
  %37 = xor i1 %36, true
  %38 = zext i1 %37 to i8
  store i8 %38, ptr %11, align 1, !tbaa !54
  call void @llvm.lifetime.start.p0(i64 8, ptr %12) #15
  %39 = load ptr, ptr %7, align 8, !tbaa !72
  %40 = getelementptr inbounds nuw %struct.pmix_list_t, ptr %39, i32 0, i32 1
  %41 = getelementptr inbounds nuw %struct.pmix_list_item_t, ptr %40, i32 0, i32 1
  %42 = load ptr, ptr %41, align 8, !tbaa !104
  store ptr %42, ptr %12, align 8, !tbaa !40
  br label %43

43:                                               ; preds = %112, %3
  %44 = load ptr, ptr %12, align 8, !tbaa !40
  %45 = load ptr, ptr %7, align 8, !tbaa !72
  %46 = getelementptr inbounds nuw %struct.pmix_list_t, ptr %45, i32 0, i32 1
  %47 = icmp ne ptr %44, %46
  br i1 %47, label %48, label %116

48:                                               ; preds = %43
  %49 = load ptr, ptr %12, align 8, !tbaa !40
  %50 = getelementptr inbounds nuw %struct.pmix_mca_base_var_file_value_t, ptr %49, i32 0, i32 1
  %51 = load ptr, ptr %50, align 8, !tbaa !42
  %52 = load ptr, ptr %8, align 8, !tbaa !47
  %53 = call i32 @strcmp(ptr noundef %51, ptr noundef %52) #16
  %54 = icmp ne i32 0, %53
  br i1 %54, label %55, label %63

55:                                               ; preds = %48
  %56 = load ptr, ptr %12, align 8, !tbaa !40
  %57 = getelementptr inbounds nuw %struct.pmix_mca_base_var_file_value_t, ptr %56, i32 0, i32 1
  %58 = load ptr, ptr %57, align 8, !tbaa !42
  %59 = load ptr, ptr %9, align 8, !tbaa !47
  %60 = call i32 @strcmp(ptr noundef %58, ptr noundef %59) #16
  %61 = icmp ne i32 0, %60
  br i1 %61, label %62, label %63

62:                                               ; preds = %55
  br label %112

63:                                               ; preds = %55, %48
  %64 = load ptr, ptr %6, align 8, !tbaa !3
  %65 = getelementptr inbounds nuw %struct.pmix_mca_base_var_t, ptr %64, i32 0, i32 10
  %66 = load i32, ptr %65, align 4, !tbaa !75
  %67 = icmp eq i32 5, %66
  br i1 %67, label %68, label %75

68:                                               ; preds = %63
  %69 = load i8, ptr @pmix_mca_base_var_suppress_override_warning, align 1, !tbaa !54, !range !30, !noundef !31
  %70 = trunc i8 %69 to i1
  br i1 %70, label %74, label %71

71:                                               ; preds = %68
  %72 = load ptr, ptr %8, align 8, !tbaa !47
  %73 = call i32 (ptr, ptr, i32, ...) @pmix_show_help(ptr noundef @.str.43, ptr noundef @.str.75, i32 noundef 1, ptr noundef %72)
  br label %74

74:                                               ; preds = %71, %68
  store i32 -46, ptr %4, align 4
  store i32 1, ptr %13, align 4
  br label %117

75:                                               ; preds = %63
  %76 = load i8, ptr %10, align 1, !tbaa !54, !range !30, !noundef !31
  %77 = trunc i8 %76 to i1
  br i1 %77, label %78, label %92

78:                                               ; preds = %75
  call void @llvm.lifetime.start.p0(i64 8, ptr %14) #15
  store ptr @.str.76, ptr %14, align 8, !tbaa !47
  %79 = load i8, ptr %11, align 1, !tbaa !54, !range !30, !noundef !31
  %80 = trunc i8 %79 to i1
  br i1 %80, label %81, label %85

81:                                               ; preds = %78
  %82 = load ptr, ptr %6, align 8, !tbaa !3
  %83 = getelementptr inbounds nuw %struct.pmix_mca_base_var_t, ptr %82, i32 0, i32 5
  %84 = load ptr, ptr %83, align 8, !tbaa !36
  store ptr %84, ptr %14, align 8, !tbaa !47
  br label %85

85:                                               ; preds = %81, %78
  %86 = load ptr, ptr %8, align 8, !tbaa !47
  %87 = load ptr, ptr %12, align 8, !tbaa !40
  %88 = getelementptr inbounds nuw %struct.pmix_mca_base_var_file_value_t, ptr %87, i32 0, i32 3
  %89 = load ptr, ptr %88, align 8, !tbaa !81
  %90 = load ptr, ptr %14, align 8, !tbaa !47
  %91 = call i32 (ptr, ptr, i32, ...) @pmix_show_help(ptr noundef @.str.43, ptr noundef @.str.77, i32 noundef 1, ptr noundef %86, ptr noundef %89, ptr noundef %90)
  call void @llvm.lifetime.end.p0(i64 8, ptr %14) #15
  br label %92

92:                                               ; preds = %85, %75
  %93 = load ptr, ptr %12, align 8, !tbaa !40
  %94 = load ptr, ptr %6, align 8, !tbaa !3
  %95 = getelementptr inbounds nuw %struct.pmix_mca_base_var_t, ptr %94, i32 0, i32 17
  store ptr %93, ptr %95, align 8, !tbaa !79
  %96 = load ptr, ptr %6, align 8, !tbaa !3
  %97 = getelementptr inbounds nuw %struct.pmix_mca_base_var_t, ptr %96, i32 0, i32 10
  store i32 3, ptr %97, align 4, !tbaa !75
  %98 = load i8, ptr %11, align 1, !tbaa !54, !range !30, !noundef !31
  %99 = trunc i8 %98 to i1
  br i1 %99, label %100, label %106

100:                                              ; preds = %92
  %101 = load ptr, ptr %12, align 8, !tbaa !40
  %102 = load ptr, ptr %5, align 8, !tbaa !3
  %103 = getelementptr inbounds nuw %struct.pmix_mca_base_var_t, ptr %102, i32 0, i32 17
  store ptr %101, ptr %103, align 8, !tbaa !79
  %104 = load ptr, ptr %5, align 8, !tbaa !3
  %105 = getelementptr inbounds nuw %struct.pmix_mca_base_var_t, ptr %104, i32 0, i32 10
  store i32 3, ptr %105, align 4, !tbaa !75
  br label %106

106:                                              ; preds = %100, %92
  %107 = load ptr, ptr %6, align 8, !tbaa !3
  %108 = load ptr, ptr %12, align 8, !tbaa !40
  %109 = getelementptr inbounds nuw %struct.pmix_mca_base_var_file_value_t, ptr %108, i32 0, i32 2
  %110 = load ptr, ptr %109, align 8, !tbaa !46
  %111 = call i32 @var_set_from_string(ptr noundef %107, ptr noundef %110)
  store i32 %111, ptr %4, align 4
  store i32 1, ptr %13, align 4
  br label %117

112:                                              ; preds = %62
  %113 = load ptr, ptr %12, align 8, !tbaa !40
  %114 = getelementptr inbounds nuw %struct.pmix_list_item_t, ptr %113, i32 0, i32 1
  %115 = load ptr, ptr %114, align 8, !tbaa !106
  store ptr %115, ptr %12, align 8, !tbaa !40
  br label %43, !llvm.loop !141

116:                                              ; preds = %43
  store i32 -46, ptr %4, align 4
  store i32 1, ptr %13, align 4
  br label %117

117:                                              ; preds = %116, %106, %74
  call void @llvm.lifetime.end.p0(i64 8, ptr %12) #15
  call void @llvm.lifetime.end.p0(i64 1, ptr %11) #15
  call void @llvm.lifetime.end.p0(i64 1, ptr %10) #15
  call void @llvm.lifetime.end.p0(i64 8, ptr %9) #15
  call void @llvm.lifetime.end.p0(i64 8, ptr %8) #15
  %118 = load i32, ptr %4, align 4
  ret i32 %118
}