; Function Attrs: nounwind uwtable
define internal fastcc i32 @var_set_from_file(ptr noundef captures(none) %0, ptr noundef captures(none) %1, ptr noundef readonly captures(address) %2) unnamed_addr #0 {
  %4 = getelementptr inbounds nuw i8, ptr %0, i64 144
  %5 = load ptr, ptr %4, align 8, !tbaa !42
  %6 = getelementptr inbounds nuw i8, ptr %0, i64 152
  %7 = load ptr, ptr %6, align 8, !tbaa !43
  %8 = getelementptr inbounds nuw i8, ptr %0, i64 320
  %9 = load i32, ptr %8, align 8, !tbaa !61
  %10 = and i32 %9, 8
  %.not = icmp eq i32 %10, 0
  %11 = and i32 %9, 131072
  %.not31 = icmp eq i32 %11, 0
  %12 = getelementptr inbounds nuw i8, ptr %2, i64 120
  %13 = getelementptr inbounds nuw i8, ptr %2, i64 240
  %.02936 = load ptr, ptr %13, align 8, !tbaa !87
  %.not3237 = icmp eq ptr %.02936, %12
  br i1 %.not3237, label %.loopexit, label %.lr.ph

.lr.ph:                                           ; preds = %3, %46
  %.02938 = phi ptr [ %.029, %46 ], [ %.02936, %3 ]
  %14 = getelementptr inbounds nuw i8, ptr %.02938, i64 144
  %15 = load ptr, ptr %14, align 8, !tbaa !46
  %16 = tail call i32 @strcmp(ptr noundef nonnull dereferenceable(1) %15, ptr noundef nonnull dereferenceable(1) %5) #30
  %.not33 = icmp eq i32 %16, 0
  br i1 %.not33, label %19, label %17

17:                                               ; preds = %.lr.ph
  %18 = tail call i32 @strcmp(ptr noundef nonnull dereferenceable(1) %15, ptr noundef nonnull dereferenceable(1) %7) #30
  %.not34 = icmp eq i32 %18, 0
  br i1 %.not34, label %19, label %46

19:                                               ; preds = %17, %.lr.ph
  %20 = getelementptr inbounds nuw i8, ptr %1, i64 324
  %21 = load i32, ptr %20, align 4, !tbaa !70
  %22 = icmp eq i32 %21, 5
  br i1 %22, label %23, label %28

23:                                               ; preds = %19
  %24 = load i8, ptr @pmix_mca_base_var_suppress_override_warning, align 1, !tbaa !54, !range !36, !noundef !37
  %25 = trunc nuw i8 %24 to i1
  br i1 %25, label %.loopexit, label %26

26:                                               ; preds = %23
  %27 = tail call i32 (ptr, ptr, i32, ...) @pmix_show_help(ptr noundef nonnull @.str.43, ptr noundef nonnull @.str.75, i32 noundef 1, ptr noundef nonnull %5) #25
  br label %.loopexit

28:                                               ; preds = %19
  br i1 %.not, label %37, label %29

29:                                               ; preds = %28
  br i1 %.not31, label %33, label %30

30:                                               ; preds = %29
  %31 = getelementptr inbounds nuw i8, ptr %1, i64 144
  %32 = load ptr, ptr %31, align 8, !tbaa !42
  br label %33

33:                                               ; preds = %30, %29
  %.0 = phi ptr [ %32, %30 ], [ @.str.76, %29 ]
  %34 = getelementptr inbounds nuw i8, ptr %.02938, i64 160
  %35 = load ptr, ptr %34, align 8, !tbaa !73
  %36 = tail call i32 (ptr, ptr, i32, ...) @pmix_show_help(ptr noundef nonnull @.str.43, ptr noundef nonnull @.str.77, i32 noundef 1, ptr noundef nonnull %5, ptr noundef %35, ptr noundef %.0) #25
  br label %37

37:                                               ; preds = %33, %28
  %38 = getelementptr inbounds nuw i8, ptr %1, i64 376
  store ptr %.02938, ptr %38, align 8, !tbaa !72
  store i32 3, ptr %20, align 4, !tbaa !70
  br i1 %.not31, label %42, label %39

39:                                               ; preds = %37
  %40 = getelementptr inbounds nuw i8, ptr %0, i64 376
  store ptr %.02938, ptr %40, align 8, !tbaa !72
  %41 = getelementptr inbounds nuw i8, ptr %0, i64 324
  store i32 3, ptr %41, align 4, !tbaa !70
  br label %42

42:                                               ; preds = %39, %37
  %43 = getelementptr inbounds nuw i8, ptr %.02938, i64 152
  %44 = load ptr, ptr %43, align 8, !tbaa !50
  %45 = tail call fastcc i32 @var_set_from_string(ptr noundef nonnull %1, ptr noundef %44)
  br label %.loopexit

46:                                               ; preds = %17
  %47 = getelementptr inbounds nuw i8, ptr %.02938, i64 120
  %.029 = load ptr, ptr %47, align 8, !tbaa !87
  %.not32 = icmp eq ptr %.029, %12
  br i1 %.not32, label %.loopexit, label %.lr.ph, !llvm.loop !115

.loopexit:                                        ; preds = %46, %3, %23, %26, %42
  %.030 = phi i32 [ %45, %42 ], [ -46, %26 ], [ -46, %23 ], [ -46, %3 ], [ -46, %46 ]
  ret i32 %.030
}